; Function Attrs: mustprogress nofree norecurse nosync nounwind willreturn memory(read, inaccessiblemem: none) uwtable
define dso_local { <2 x float>, <2 x float> } @_ZNK37btDeformableFaceNodeContactConstraint5getVbEv(ptr noundef nonnull readonly align 8 captures(none) dereferenceable(96) %0) unnamed_addr #1 align 2 {
  %2 = getelementptr inbounds nuw i8, ptr %0, i64 56
  %3 = load ptr, ptr %2, align 8, !tbaa !118
  %4 = getelementptr inbounds nuw i8, ptr %0, i64 48
  %5 = load ptr, ptr %4, align 8, !tbaa !117
  %6 = getelementptr inbounds nuw i8, ptr %5, i64 16
  %7 = load ptr, ptr %6, align 8, !tbaa !109
  %8 = getelementptr inbounds nuw i8, ptr %7, i64 48
  %9 = getelementptr inbounds nuw i8, ptr %3, i64 16
  %10 = load float, ptr %8, align 4, !tbaa !37
  %11 = load float, ptr %9, align 4, !tbaa !37
  %12 = fmul float %10, %11
  %13 = getelementptr inbounds nuw i8, ptr %7, i64 52
  %14 = load float, ptr %13, align 4, !tbaa !37
  %15 = fmul float %11, %14
  %16 = getelementptr inbounds nuw i8, ptr %7, i64 56
  %17 = load float, ptr %16, align 4, !tbaa !37
  %18 = fmul float %11, %17
  %19 = getelementptr inbounds nuw i8, ptr %5, i64 24
  %20 = load ptr, ptr %19, align 8, !tbaa !109
  %21 = getelementptr inbounds nuw i8, ptr %20, i64 48
  %22 = getelementptr inbounds nuw i8, ptr %3, i64 20
  %23 = load float, ptr %21, align 4, !tbaa !37
  %24 = load float, ptr %22, align 4, !tbaa !37
  %25 = fmul float %23, %24
  %26 = getelementptr inbounds nuw i8, ptr %20, i64 52
  %27 = load float, ptr %26, align 4, !tbaa !37
  %28 = fmul float %24, %27
  %29 = getelementptr inbounds nuw i8, ptr %20, i64 56
  %30 = load float, ptr %29, align 4, !tbaa !37
  %31 = fmul float %24, %30
  %32 = fadd float %12, %25
  %33 = fadd float %15, %28
  %34 = fadd float %18, %31
  %35 = getelementptr inbounds nuw i8, ptr %5, i64 32
  %36 = load ptr, ptr %35, align 8, !tbaa !109
  %37 = getelementptr inbounds nuw i8, ptr %36, i64 48
  %38 = getelementptr inbounds nuw i8, ptr %3, i64 24
  %39 = load float, ptr %37, align 4, !tbaa !37
  %40 = load float, ptr %38, align 4, !tbaa !37
  %41 = fmul float %39, %40
  %42 = getelementptr inbounds nuw i8, ptr %36, i64 52
  %43 = load float, ptr %42, align 4, !tbaa !37
  %44 = fmul float %40, %43
  %45 = getelementptr inbounds nuw i8, ptr %36, i64 56
  %46 = load float, ptr %45, align 4, !tbaa !37
  %47 = fmul float %40, %46
  %48 = fadd float %32, %41
  %49 = fadd float %33, %44
  %50 = fadd float %34, %47
  %.sroa.0.0.vec.insert.i19 = insertelement <2 x float> poison, float %48, i64 0
  %.sroa.0.4.vec.insert.i20 = insertelement <2 x float> %.sroa.0.0.vec.insert.i19, float %49, i64 1
  %.sroa.3.12.vec.insert.i21 = insertelement <2 x float> <float poison, float 0.000000e+00>, float %50, i64 0
  %.fca.0.insert.i22 = insertvalue { <2 x float>, <2 x float> } poison, <2 x float> %.sroa.0.4.vec.insert.i20, 0
  %.fca.1.insert.i23 = insertvalue { <2 x float>, <2 x float> } %.fca.0.insert.i22, <2 x float> %.sroa.3.12.vec.insert.i21, 1
  ret { <2 x float>, <2 x float> } %.fca.1.insert.i23
}